target datalayout = "e-m:e-p270:32:32-p271:32:32-p272:64:64-i64:64-i128:128-f80:128-n8:16:32:64-S128"
target triple = "x86_64-pc-linux-gnu"

%struct.jvmtiTimerInfo = type { i64, i8, i8, i32, i64, i64 }

; Function Attrs: mustprogress nounwind uwtable
define hidden void @_ZN2os28current_thread_cpu_time_infoEP14jvmtiTimerInfo(ptr noundef %0) #1 align 2 {
  %2 = alloca ptr, align 8
  store ptr %0, ptr %2, align 8
  %3 = load ptr, ptr %2, align 8
  %4 = getelementptr inbounds %struct.jvmtiTimerInfo, ptr %3, i32 0, i32 0
  store i64 -1, ptr %4, align 8
  %5 = load ptr, ptr %2, align 8
  %6 = getelementptr inbounds %struct.jvmtiTimerInfo, ptr %5, i32 0, i32 2
  store i8 0, ptr %6, align 1
  %7 = load ptr, ptr %2, align 8
  %8 = getelementptr inbounds %struct.jvmtiTimerInfo, ptr %7, i32 0, i32 1
  store i8 0, ptr %8, align 8
  %9 = load ptr, ptr %2, align 8
  %10 = getelementptr inbounds %struct.jvmtiTimerInfo, ptr %9, i32 0, i32 3
  store i32 31, ptr %10, align 4
  ret void
}