; Function Attrs: mustprogress nofree norecurse nosync nounwind willreturn memory(argmem: write) uwtable
define hidden void @_ZN2os28current_thread_cpu_time_infoEP14jvmtiTimerInfo(ptr nocapture noundef writeonly %0) local_unnamed_addr #17 align 2 {
  store i64 -1, ptr %0, align 8
  %2 = getelementptr inbounds i8, ptr %0, i64 9
  store i8 0, ptr %2, align 1
  %3 = getelementptr inbounds i8, ptr %0, i64 8
  store i8 0, ptr %3, align 8
  %4 = getelementptr inbounds i8, ptr %0, i64 12
  store i32 31, ptr %4, align 4
  ret void
}